target datalayout = "e-m:e-p270:32:32-p271:32:32-p272:64:64-i64:64-i128:128-f80:128-n8:16:32:64-S128"
target triple = "x86_64-pc-linux-gnu"

%struct.nghttp2_stream = type { i32, %struct.nghttp2_pq_entry, i64, i64, i64, i64, ptr, ptr, ptr, i64, i32, i32, i32, i32, i32, i32, i32, i16, i32, i8, i8, i8, i8, i8, i8 }
%struct.nghttp2_pq_entry = type { i64 }

; Function Attrs: nounwind uwtable
define internal i32 @update_initial_window_size(ptr noundef %0, i32 noundef %1, i32 noundef %2) #0 {
  %4 = alloca i32, align 4
  %5 = alloca ptr, align 8
  %6 = alloca i32, align 4
  %7 = alloca i32, align 4
  %8 = alloca i64, align 8
  %9 = alloca i32, align 4
  store ptr %0, ptr %5, align 8, !tbaa !42
  store i32 %1, ptr %6, align 4, !tbaa !8
  store i32 %2, ptr %7, align 4, !tbaa !8
  call void @llvm.lifetime.start.p0(i64 8, ptr %8) #4
  %10 = load ptr, ptr %5, align 8, !tbaa !42
  %11 = load i32, ptr %10, align 4, !tbaa !8
  %12 = sext i32 %11 to i64
  %13 = load i32, ptr %6, align 4, !tbaa !8
  %14 = sext i32 %13 to i64
  %15 = add nsw i64 %12, %14
  %16 = load i32, ptr %7, align 4, !tbaa !8
  %17 = sext i32 %16 to i64
  %18 = sub nsw i64 %15, %17
  store i64 %18, ptr %8, align 8, !tbaa !44
  %19 = load i64, ptr %8, align 8, !tbaa !44
  %20 = icmp sgt i64 -2147483648, %19
  br i1 %20, label %24, label %21

21:                                               ; preds = %3
  %22 = load i64, ptr %8, align 8, !tbaa !44
  %23 = icmp sgt i64 %22, 2147483647
  br i1 %23, label %24, label %25

24:                                               ; preds = %21, %3
  store i32 -1, ptr %4, align 4
  store i32 1, ptr %9, align 4
  br label %29

25:                                               ; preds = %21
  %26 = load i64, ptr %8, align 8, !tbaa !44
  %27 = trunc i64 %26 to i32
  %28 = load ptr, ptr %5, align 8, !tbaa !42
  store i32 %27, ptr %28, align 4, !tbaa !8
  store i32 0, ptr %4, align 4
  store i32 1, ptr %9, align 4
  br label %29

29:                                               ; preds = %25, %24
  call void @llvm.lifetime.end.p0(i64 8, ptr %8) #4
  %30 = load i32, ptr %4, align 4
  ret i32 %30
}

; Function Attrs: nounwind uwtable
define hidden i32 @nghttp2_stream_update_local_initial_window_size(ptr noundef %0, i32 noundef %1, i32 noundef %2) #0 {
  %4 = alloca ptr, align 8
  %5 = alloca i32, align 4
  %6 = alloca i32, align 4
  store ptr %0, ptr %4, align 8, !tbaa !3
  store i32 %1, ptr %5, align 4, !tbaa !8
  store i32 %2, ptr %6, align 4, !tbaa !8
  %7 = load ptr, ptr %4, align 8, !tbaa !3
  %8 = getelementptr inbounds nuw %struct.nghttp2_stream, ptr %7, i32 0, i32 15
  %9 = load i32, ptr %5, align 4, !tbaa !8
  %10 = load i32, ptr %6, align 4, !tbaa !8
  %11 = call i32 @update_initial_window_size(ptr noundef %8, i32 noundef %9, i32 noundef %10)
  ret i32 %11
}